target datalayout = "e-m:e-p270:32:32-p271:32:32-p272:64:64-i64:64-i128:128-f80:128-n8:16:32:64-S128"
target triple = "x86_64-pc-linux-gnu"

%struct.CVodeMemRec = type { double, ptr, ptr, i32, i32, i32, double, double, ptr, i32, ptr, ptr, i32, ptr, i32, i32, double, double, ptr, i32, i32, i32, ptr, ptr, ptr, i32, i32, ptr, ptr, ptr, i32, double, i32, i32, double, ptr, ptr, i32, ptr, ptr, i32, i32, i32, double, ptr, ptr, [13 x ptr], ptr, ptr, ptr, ptr, ptr, [13 x ptr], ptr, ptr, ptr, ptr, [13 x ptr], ptr, ptr, ptr, ptr, ptr, i32, [13 x ptr], ptr, ptr, ptr, ptr, ptr, i32, double, i32, i32, i32, i32, i32, double, double, double, double, double, double, double, double, [14 x double], [6 x double], [13 x double], double, double, double, double, double, double, double, double, double, double, double, i32, ptr, i32, i64, i32, i32, i32, i32, i32, double, double, double, i64, i64, i64, i64, i64, i64, i64, i64, i64, ptr, i64, i64, ptr, i64, i64, i64, i64, i64, i64, i32, i64, i64, i64, i64, i64, i64, double, double, double, ptr, ptr, ptr, ptr, ptr, i32, i32, i64, double, double, double, i32, double, i32, i32, i32, i32, i32, i32, i32, i32, i32, i32, i32, i32, i32, i32, i32, i32, ptr, ptr, ptr, i32, [6 x [4 x double]], i32, i64, ptr, i32, ptr, ptr, double, double, double, ptr, ptr, ptr, double, double, i32, i32, i64, ptr, i32, i32, ptr, i32 }
%struct._generic_N_Vector = type { ptr, ptr }
%struct._generic_N_Vector_Ops = type { ptr, ptr, ptr, ptr, ptr, ptr, ptr, ptr, ptr, ptr, ptr, ptr, ptr, ptr, ptr, ptr, ptr, ptr, ptr, ptr, ptr, ptr, ptr, ptr, ptr }
%struct.CVBandPrecDataRec = type { i64, i64, i64, ptr, ptr, ptr, i64, ptr }
%struct.CVSpilsMemRec = type { i32, i32, i32, double, double, double, double, i32, i64, i64, i64, i64, i64, i64, i64, ptr, ptr, ptr, ptr, ptr, ptr, ptr, ptr, ptr, i32, ptr, ptr, i64 }

@.str = private unnamed_addr constant [10 x i8] c"CVBANDPRE\00", align 1
@.str.1 = private unnamed_addr constant [15 x i8] c"CVBandPrecInit\00", align 1
@.str.2 = private unnamed_addr constant [27 x i8] c"Integrator memory is NULL.\00", align 1
@.str.3 = private unnamed_addr constant [80 x i8] c"Linear solver memory is NULL. One of the SPILS linear solvers must be attached.\00", align 1
@.str.4 = private unnamed_addr constant [48 x i8] c"A required vector operation is not implemented.\00", align 1
@.str.5 = private unnamed_addr constant [25 x i8] c"A memory request failed.\00", align 1

; Function Attrs: nounwind uwtable
define i32 @CVBandPrecInit(ptr noundef %0, i64 noundef %1, i64 noundef %2, i64 noundef %3) #0 {
  %5 = alloca i32, align 4
  %6 = alloca ptr, align 8
  %7 = alloca i64, align 8
  %8 = alloca i64, align 8
  %9 = alloca i64, align 8
  %10 = alloca ptr, align 8
  %11 = alloca ptr, align 8
  %12 = alloca ptr, align 8
  %13 = alloca i64, align 8
  %14 = alloca i64, align 8
  %15 = alloca i64, align 8
  %16 = alloca i32, align 4
  %17 = alloca i32, align 4
  store ptr %0, ptr %6, align 8, !tbaa !3
  store i64 %1, ptr %7, align 8, !tbaa !7
  store i64 %2, ptr %8, align 8, !tbaa !7
  store i64 %3, ptr %9, align 8, !tbaa !7
  call void @llvm.lifetime.start.p0(i64 8, ptr %10) #5
  call void @llvm.lifetime.start.p0(i64 8, ptr %11) #5
  call void @llvm.lifetime.start.p0(i64 8, ptr %12) #5
  call void @llvm.lifetime.start.p0(i64 8, ptr %13) #5
  call void @llvm.lifetime.start.p0(i64 8, ptr %14) #5
  call void @llvm.lifetime.start.p0(i64 8, ptr %15) #5
  call void @llvm.lifetime.start.p0(i64 4, ptr %16) #5
  %18 = load ptr, ptr %6, align 8, !tbaa !3
  %19 = icmp eq ptr %18, null
  br i1 %19, label %20, label %21

20:                                               ; preds = %4
  call void (ptr, i32, ptr, ptr, ptr, ...) @cvProcessError(ptr noundef null, i32 noundef -1, ptr noundef @.str, ptr noundef @.str.1, ptr noundef @.str.2)
  store i32 -1, ptr %5, align 4
  store i32 1, ptr %17, align 4
  br label %188

21:                                               ; preds = %4
  %22 = load ptr, ptr %6, align 8, !tbaa !3
  store ptr %22, ptr %10, align 8, !tbaa !9
  %23 = load ptr, ptr %10, align 8, !tbaa !9
  %24 = getelementptr inbounds nuw %struct.CVodeMemRec, ptr %23, i32 0, i32 144
  %25 = load ptr, ptr %24, align 8, !tbaa !11
  %26 = icmp eq ptr %25, null
  br i1 %26, label %27, label %29

27:                                               ; preds = %21
  %28 = load ptr, ptr %10, align 8, !tbaa !9
  call void (ptr, i32, ptr, ptr, ptr, ...) @cvProcessError(ptr noundef %28, i32 noundef -2, ptr noundef @.str, ptr noundef @.str.1, ptr noundef @.str.3)
  store i32 -2, ptr %5, align 4
  store i32 1, ptr %17, align 4
  br label %188

29:                                               ; preds = %21
  %30 = load ptr, ptr %10, align 8, !tbaa !9
  %31 = getelementptr inbounds nuw %struct.CVodeMemRec, ptr %30, i32 0, i32 144
  %32 = load ptr, ptr %31, align 8, !tbaa !11
  store ptr %32, ptr %11, align 8, !tbaa !22
  %33 = load ptr, ptr %10, align 8, !tbaa !9
  %34 = getelementptr inbounds nuw %struct.CVodeMemRec, ptr %33, i32 0, i32 50
  %35 = load ptr, ptr %34, align 8, !tbaa !24
  %36 = getelementptr inbounds nuw %struct._generic_N_Vector, ptr %35, i32 0, i32 1
  %37 = load ptr, ptr %36, align 8, !tbaa !25
  %38 = getelementptr inbounds nuw %struct._generic_N_Vector_Ops, ptr %37, i32 0, i32 4
  %39 = load ptr, ptr %38, align 8, !tbaa !28
  %40 = icmp eq ptr %39, null
  br i1 %40, label %41, label %43

41:                                               ; preds = %29
  %42 = load ptr, ptr %10, align 8, !tbaa !9
  call void (ptr, i32, ptr, ptr, ptr, ...) @cvProcessError(ptr noundef %42, i32 noundef -3, ptr noundef @.str, ptr noundef @.str.1, ptr noundef @.str.4)
  store i32 -3, ptr %5, align 4
  store i32 1, ptr %17, align 4
  br label %188

43:                                               ; preds = %29
  store ptr null, ptr %12, align 8, !tbaa !30
  %44 = call noalias ptr @malloc(i64 noundef 64) #6
  store ptr %44, ptr %12, align 8, !tbaa !30
  %45 = load ptr, ptr %12, align 8, !tbaa !30
  %46 = icmp eq ptr %45, null
  br i1 %46, label %47, label %49

47:                                               ; preds = %43
  %48 = load ptr, ptr %10, align 8, !tbaa !9
  call void (ptr, i32, ptr, ptr, ptr, ...) @cvProcessError(ptr noundef %48, i32 noundef -4, ptr noundef @.str, ptr noundef @.str.1, ptr noundef @.str.5)
  store i32 -4, ptr %5, align 4
  store i32 1, ptr %17, align 4
  br label %188

49:                                               ; preds = %43
  %50 = load ptr, ptr %6, align 8, !tbaa !3
  %51 = load ptr, ptr %12, align 8, !tbaa !30
  %52 = getelementptr inbounds nuw %struct.CVBandPrecDataRec, ptr %51, i32 0, i32 7
  store ptr %50, ptr %52, align 8, !tbaa !32
  %53 = load i64, ptr %7, align 8, !tbaa !7
  %54 = load ptr, ptr %12, align 8, !tbaa !30
  %55 = getelementptr inbounds nuw %struct.CVBandPrecDataRec, ptr %54, i32 0, i32 0
  store i64 %53, ptr %55, align 8, !tbaa !35
  %56 = load i64, ptr %7, align 8, !tbaa !7
  %57 = sub nsw i64 %56, 1
  %58 = load i64, ptr %8, align 8, !tbaa !7
  %59 = icmp sgt i64 0, %58
  br i1 %59, label %60, label %61

60:                                               ; preds = %49
  br label %63

61:                                               ; preds = %49
  %62 = load i64, ptr %8, align 8, !tbaa !7
  br label %63

63:                                               ; preds = %61, %60
  %64 = phi i64 [ 0, %60 ], [ %62, %61 ]
  %65 = icmp slt i64 %57, %64
  br i1 %65, label %66, label %69

66:                                               ; preds = %63
  %67 = load i64, ptr %7, align 8, !tbaa !7
  %68 = sub nsw i64 %67, 1
  br label %77

69:                                               ; preds = %63
  %70 = load i64, ptr %8, align 8, !tbaa !7
  %71 = icmp sgt i64 0, %70
  br i1 %71, label %72, label %73

72:                                               ; preds = %69
  br label %75

73:                                               ; preds = %69
  %74 = load i64, ptr %8, align 8, !tbaa !7
  br label %75

75:                                               ; preds = %73, %72
  %76 = phi i64 [ 0, %72 ], [ %74, %73 ]
  br label %77

77:                                               ; preds = %75, %66
  %78 = phi i64 [ %68, %66 ], [ %76, %75 ]
  store i64 %78, ptr %13, align 8, !tbaa !7
  %79 = load ptr, ptr %12, align 8, !tbaa !30
  %80 = getelementptr inbounds nuw %struct.CVBandPrecDataRec, ptr %79, i32 0, i32 2
  store i64 %78, ptr %80, align 8, !tbaa !36
  %81 = load i64, ptr %7, align 8, !tbaa !7
  %82 = sub nsw i64 %81, 1
  %83 = load i64, ptr %9, align 8, !tbaa !7
  %84 = icmp sgt i64 0, %83
  br i1 %84, label %85, label %86

85:                                               ; preds = %77
  br label %88

86:                                               ; preds = %77
  %87 = load i64, ptr %9, align 8, !tbaa !7
  br label %88

88:                                               ; preds = %86, %85
  %89 = phi i64 [ 0, %85 ], [ %87, %86 ]
  %90 = icmp slt i64 %82, %89
  br i1 %90, label %91, label %94

91:                                               ; preds = %88
  %92 = load i64, ptr %7, align 8, !tbaa !7
  %93 = sub nsw i64 %92, 1
  br label %102

94:                                               ; preds = %88
  %95 = load i64, ptr %9, align 8, !tbaa !7
  %96 = icmp sgt i64 0, %95
  br i1 %96, label %97, label %98

97:                                               ; preds = %94
  br label %100

98:                                               ; preds = %94
  %99 = load i64, ptr %9, align 8, !tbaa !7
  br label %100

100:                                              ; preds = %98, %97
  %101 = phi i64 [ 0, %97 ], [ %99, %98 ]
  br label %102

102:                                              ; preds = %100, %91
  %103 = phi i64 [ %93, %91 ], [ %101, %100 ]
  store i64 %103, ptr %14, align 8, !tbaa !7
  %104 = load ptr, ptr %12, align 8, !tbaa !30
  %105 = getelementptr inbounds nuw %struct.CVBandPrecDataRec, ptr %104, i32 0, i32 1
  store i64 %103, ptr %105, align 8, !tbaa !37
  %106 = load ptr, ptr %12, align 8, !tbaa !30
  %107 = getelementptr inbounds nuw %struct.CVBandPrecDataRec, ptr %106, i32 0, i32 6
  store i64 0, ptr %107, align 8, !tbaa !38
  %108 = load ptr, ptr %12, align 8, !tbaa !30
  %109 = getelementptr inbounds nuw %struct.CVBandPrecDataRec, ptr %108, i32 0, i32 3
  store ptr null, ptr %109, align 8, !tbaa !39
  %110 = load i64, ptr %7, align 8, !tbaa !7
  %111 = load i64, ptr %13, align 8, !tbaa !7
  %112 = load i64, ptr %14, align 8, !tbaa !7
  %113 = load i64, ptr %13, align 8, !tbaa !7
  %114 = call ptr @NewBandMat(i64 noundef %110, i64 noundef %111, i64 noundef %112, i64 noundef %113)
  %115 = load ptr, ptr %12, align 8, !tbaa !30
  %116 = getelementptr inbounds nuw %struct.CVBandPrecDataRec, ptr %115, i32 0, i32 3
  store ptr %114, ptr %116, align 8, !tbaa !39
  %117 = load ptr, ptr %12, align 8, !tbaa !30
  %118 = getelementptr inbounds nuw %struct.CVBandPrecDataRec, ptr %117, i32 0, i32 3
  %119 = load ptr, ptr %118, align 8, !tbaa !39
  %120 = icmp eq ptr %119, null
  br i1 %120, label %121, label %124

121:                                              ; preds = %102
  %122 = load ptr, ptr %12, align 8, !tbaa !30
  call void @free(ptr noundef %122) #5
  store ptr null, ptr %12, align 8, !tbaa !30
  %123 = load ptr, ptr %10, align 8, !tbaa !9
  call void (ptr, i32, ptr, ptr, ptr, ...) @cvProcessError(ptr noundef %123, i32 noundef -4, ptr noundef @.str, ptr noundef @.str.1, ptr noundef @.str.5)
  store i32 -4, ptr %5, align 4
  store i32 1, ptr %17, align 4
  br label %188

124:                                              ; preds = %102
  %125 = load i64, ptr %7, align 8, !tbaa !7
  %126 = sub nsw i64 %125, 1
  %127 = load i64, ptr %13, align 8, !tbaa !7
  %128 = load i64, ptr %14, align 8, !tbaa !7
  %129 = add nsw i64 %127, %128
  %130 = icmp slt i64 %126, %129
  br i1 %130, label %131, label %134

131:                                              ; preds = %124
  %132 = load i64, ptr %7, align 8, !tbaa !7
  %133 = sub nsw i64 %132, 1
  br label %138

134:                                              ; preds = %124
  %135 = load i64, ptr %13, align 8, !tbaa !7
  %136 = load i64, ptr %14, align 8, !tbaa !7
  %137 = add nsw i64 %135, %136
  br label %138

138:                                              ; preds = %134, %131
  %139 = phi i64 [ %133, %131 ], [ %137, %134 ]
  store i64 %139, ptr %15, align 8, !tbaa !7
  %140 = load ptr, ptr %12, align 8, !tbaa !30
  %141 = getelementptr inbounds nuw %struct.CVBandPrecDataRec, ptr %140, i32 0, i32 4
  store ptr null, ptr %141, align 8, !tbaa !40
  %142 = load i64, ptr %7, align 8, !tbaa !7
  %143 = load i64, ptr %13, align 8, !tbaa !7
  %144 = load i64, ptr %14, align 8, !tbaa !7
  %145 = load i64, ptr %15, align 8, !tbaa !7
  %146 = call ptr @NewBandMat(i64 noundef %142, i64 noundef %143, i64 noundef %144, i64 noundef %145)
  %147 = load ptr, ptr %12, align 8, !tbaa !30
  %148 = getelementptr inbounds nuw %struct.CVBandPrecDataRec, ptr %147, i32 0, i32 4
  store ptr %146, ptr %148, align 8, !tbaa !40
  %149 = load ptr, ptr %12, align 8, !tbaa !30
  %150 = getelementptr inbounds nuw %struct.CVBandPrecDataRec, ptr %149, i32 0, i32 4
  %151 = load ptr, ptr %150, align 8, !tbaa !40
  %152 = icmp eq ptr %151, null
  br i1 %152, label %153, label %159

153:                                              ; preds = %138
  %154 = load ptr, ptr %12, align 8, !tbaa !30
  %155 = getelementptr inbounds nuw %struct.CVBandPrecDataRec, ptr %154, i32 0, i32 3
  %156 = load ptr, ptr %155, align 8, !tbaa !39
  call void @DestroyMat(ptr noundef %156)
  %157 = load ptr, ptr %12, align 8, !tbaa !30
  call void @free(ptr noundef %157) #5
  store ptr null, ptr %12, align 8, !tbaa !30
  %158 = load ptr, ptr %10, align 8, !tbaa !9
  call void (ptr, i32, ptr, ptr, ptr, ...) @cvProcessError(ptr noundef %158, i32 noundef -4, ptr noundef @.str, ptr noundef @.str.1, ptr noundef @.str.5)
  store i32 -4, ptr %5, align 4
  store i32 1, ptr %17, align 4
  br label %188

159:                                              ; preds = %138
  %160 = load ptr, ptr %12, align 8, !tbaa !30
  %161 = getelementptr inbounds nuw %struct.CVBandPrecDataRec, ptr %160, i32 0, i32 5
  store ptr null, ptr %161, align 8, !tbaa !41
  %162 = load i64, ptr %7, align 8, !tbaa !7
  %163 = call ptr @NewLintArray(i64 noundef %162)
  %164 = load ptr, ptr %12, align 8, !tbaa !30
  %165 = getelementptr inbounds nuw %struct.CVBandPrecDataRec, ptr %164, i32 0, i32 5
  store ptr %163, ptr %165, align 8, !tbaa !41
  %166 = load ptr, ptr %12, align 8, !tbaa !30
  %167 = getelementptr inbounds nuw %struct.CVBandPrecDataRec, ptr %166, i32 0, i32 5
  %168 = load ptr, ptr %167, align 8, !tbaa !41
  %169 = icmp eq ptr %168, null
  br i1 %169, label %170, label %179

170:                                              ; preds = %159
  %171 = load ptr, ptr %12, align 8, !tbaa !30
  %172 = getelementptr inbounds nuw %struct.CVBandPrecDataRec, ptr %171, i32 0, i32 4
  %173 = load ptr, ptr %172, align 8, !tbaa !40
  call void @DestroyMat(ptr noundef %173)
  %174 = load ptr, ptr %12, align 8, !tbaa !30
  %175 = getelementptr inbounds nuw %struct.CVBandPrecDataRec, ptr %174, i32 0, i32 3
  %176 = load ptr, ptr %175, align 8, !tbaa !39
  call void @DestroyMat(ptr noundef %176)
  %177 = load ptr, ptr %12, align 8, !tbaa !30
  call void @free(ptr noundef %177) #5
  store ptr null, ptr %12, align 8, !tbaa !30
  %178 = load ptr, ptr %10, align 8, !tbaa !9
  call void (ptr, i32, ptr, ptr, ptr, ...) @cvProcessError(ptr noundef %178, i32 noundef -4, ptr noundef @.str, ptr noundef @.str.1, ptr noundef @.str.5)
  store i32 -4, ptr %5, align 4
  store i32 1, ptr %17, align 4
  br label %188

179:                                              ; preds = %159
  %180 = load ptr, ptr %12, align 8, !tbaa !30
  %181 = load ptr, ptr %11, align 8, !tbaa !22
  %182 = getelementptr inbounds nuw %struct.CVSpilsMemRec, ptr %181, i32 0, i32 23
  store ptr %180, ptr %182, align 8, !tbaa !42
  %183 = load ptr, ptr %11, align 8, !tbaa !22
  %184 = getelementptr inbounds nuw %struct.CVSpilsMemRec, ptr %183, i32 0, i32 22
  store ptr @cvBandPrecFree, ptr %184, align 8, !tbaa !44
  %185 = load ptr, ptr %6, align 8, !tbaa !3
  %186 = call i32 @CVSpilsSetPreconditioner(ptr noundef %185, ptr noundef @cvBandPrecSetup, ptr noundef @cvBandPrecSolve)
  store i32 %186, ptr %16, align 4, !tbaa !45
  %187 = load i32, ptr %16, align 4, !tbaa !45
  store i32 %187, ptr %5, align 4
  store i32 1, ptr %17, align 4
  br label %188

188:                                              ; preds = %179, %170, %153, %121, %47, %41, %27, %20
  call void @llvm.lifetime.end.p0(i64 4, ptr %16) #5
  call void @llvm.lifetime.end.p0(i64 8, ptr %15) #5
  call void @llvm.lifetime.end.p0(i64 8, ptr %14) #5
  call void @llvm.lifetime.end.p0(i64 8, ptr %13) #5
  call void @llvm.lifetime.end.p0(i64 8, ptr %12) #5
  call void @llvm.lifetime.end.p0(i64 8, ptr %11) #5
  call void @llvm.lifetime.end.p0(i64 8, ptr %10) #5
  %189 = load i32, ptr %5, align 4
  ret i32 %189
}