; Function Attrs: nounwind uwtable
define i32 @CVBandPrecInit(ptr noundef %0, i64 noundef %1, i64 noundef %2, i64 noundef %3) local_unnamed_addr #0 {
  %5 = icmp eq ptr %0, null
  br i1 %5, label %6, label %7

6:                                                ; preds = %4
  tail call void (ptr, i32, ptr, ptr, ptr, ...) @cvProcessError(ptr noundef null, i32 noundef -1, ptr noundef nonnull @.str, ptr noundef nonnull @.str.1, ptr noundef nonnull @.str.2) #5
  br label %53

7:                                                ; preds = %4
  %8 = getelementptr inbounds nuw i8, ptr %0, i64 1696
  %9 = load ptr, ptr %8, align 8, !tbaa !3
  %10 = icmp eq ptr %9, null
  br i1 %10, label %11, label %12

11:                                               ; preds = %7
  tail call void (ptr, i32, ptr, ptr, ptr, ...) @cvProcessError(ptr noundef nonnull %0, i32 noundef -2, ptr noundef nonnull @.str, ptr noundef nonnull @.str.1, ptr noundef nonnull @.str.3) #5
  br label %53

12:                                               ; preds = %7
  %13 = getelementptr inbounds nuw i8, ptr %0, i64 448
  %14 = load ptr, ptr %13, align 8, !tbaa !18
  %15 = getelementptr inbounds nuw i8, ptr %14, i64 8
  %16 = load ptr, ptr %15, align 8, !tbaa !19
  %17 = getelementptr inbounds nuw i8, ptr %16, i64 32
  %18 = load ptr, ptr %17, align 8, !tbaa !22
  %19 = icmp eq ptr %18, null
  br i1 %19, label %20, label %21

20:                                               ; preds = %12
  tail call void (ptr, i32, ptr, ptr, ptr, ...) @cvProcessError(ptr noundef nonnull %0, i32 noundef -3, ptr noundef nonnull @.str, ptr noundef nonnull @.str.1, ptr noundef nonnull @.str.4) #5
  br label %53

21:                                               ; preds = %12
  %22 = tail call noalias dereferenceable_or_null(64) ptr @malloc(i64 noundef 64) #6
  %23 = icmp eq ptr %22, null
  br i1 %23, label %24, label %25

24:                                               ; preds = %21
  tail call void (ptr, i32, ptr, ptr, ptr, ...) @cvProcessError(ptr noundef nonnull %0, i32 noundef -4, ptr noundef nonnull @.str, ptr noundef nonnull @.str.1, ptr noundef nonnull @.str.5) #5
  br label %53

25:                                               ; preds = %21
  %26 = getelementptr inbounds nuw i8, ptr %22, i64 56
  store ptr %0, ptr %26, align 8, !tbaa !24
  store i64 %1, ptr %22, align 8, !tbaa !27
  %27 = add nsw i64 %1, -1
  %28 = tail call i64 @llvm.smax.i64(i64 %2, i64 0)
  %.not = icmp sgt i64 %1, %28
  %. = select i1 %.not, i64 %28, i64 %27
  %29 = getelementptr inbounds nuw i8, ptr %22, i64 16
  store i64 %., ptr %29, align 8, !tbaa !28
  %30 = tail call i64 @llvm.smax.i64(i64 %3, i64 0)
  %.not73 = icmp sgt i64 %1, %30
  %31 = select i1 %.not73, i64 %30, i64 %27
  %32 = getelementptr inbounds nuw i8, ptr %22, i64 8
  store i64 %31, ptr %32, align 8, !tbaa !29
  %33 = getelementptr inbounds nuw i8, ptr %22, i64 48
  store i64 0, ptr %33, align 8, !tbaa !30
  %34 = getelementptr inbounds nuw i8, ptr %22, i64 24
  %35 = tail call ptr @NewBandMat(i64 noundef %1, i64 noundef %., i64 noundef %31, i64 noundef %.) #5
  store ptr %35, ptr %34, align 8, !tbaa !31
  %36 = icmp eq ptr %35, null
  br i1 %36, label %37, label %38

37:                                               ; preds = %25
  tail call void @free(ptr noundef nonnull %22) #5
  tail call void (ptr, i32, ptr, ptr, ptr, ...) @cvProcessError(ptr noundef nonnull %0, i32 noundef -4, ptr noundef nonnull @.str, ptr noundef nonnull @.str.1, ptr noundef nonnull @.str.5) #5
  br label %53

38:                                               ; preds = %25
  %39 = add nsw i64 %31, %.
  %.not74 = icmp sgt i64 %1, %39
  %.75 = select i1 %.not74, i64 %39, i64 %27
  %40 = getelementptr inbounds nuw i8, ptr %22, i64 32
  %41 = tail call ptr @NewBandMat(i64 noundef %1, i64 noundef %., i64 noundef %31, i64 noundef %.75) #5
  store ptr %41, ptr %40, align 8, !tbaa !32
  %42 = icmp eq ptr %41, null
  br i1 %42, label %43, label %44

43:                                               ; preds = %38
  tail call void @DestroyMat(ptr noundef nonnull %35) #5
  tail call void @free(ptr noundef nonnull %22) #5
  tail call void (ptr, i32, ptr, ptr, ptr, ...) @cvProcessError(ptr noundef nonnull %0, i32 noundef -4, ptr noundef nonnull @.str, ptr noundef nonnull @.str.1, ptr noundef nonnull @.str.5) #5
  br label %53

44:                                               ; preds = %38
  %45 = getelementptr inbounds nuw i8, ptr %22, i64 40
  %46 = tail call ptr @NewLintArray(i64 noundef %1) #5
  store ptr %46, ptr %45, align 8, !tbaa !33
  %47 = icmp eq ptr %46, null
  br i1 %47, label %48, label %49

48:                                               ; preds = %44
  tail call void @DestroyMat(ptr noundef nonnull %41) #5
  tail call void @DestroyMat(ptr noundef nonnull %35) #5
  tail call void @free(ptr noundef nonnull %22) #5
  tail call void (ptr, i32, ptr, ptr, ptr, ...) @cvProcessError(ptr noundef nonnull %0, i32 noundef -4, ptr noundef nonnull @.str, ptr noundef nonnull @.str.1, ptr noundef nonnull @.str.5) #5
  br label %53

49:                                               ; preds = %44
  %50 = getelementptr inbounds nuw i8, ptr %9, i64 176
  store ptr %22, ptr %50, align 8, !tbaa !34
  %51 = getelementptr inbounds nuw i8, ptr %9, i64 168
  store ptr @cvBandPrecFree, ptr %51, align 8, !tbaa !36
  %52 = tail call i32 @CVSpilsSetPreconditioner(ptr noundef nonnull %0, ptr noundef nonnull @cvBandPrecSetup, ptr noundef nonnull @cvBandPrecSolve) #5
  br label %53

53:                                               ; preds = %49, %48, %43, %37, %24, %20, %11, %6
  %.0 = phi i32 [ -1, %6 ], [ -2, %11 ], [ -3, %20 ], [ -4, %24 ], [ -4, %37 ], [ -4, %43 ], [ -4, %48 ], [ %52, %49 ]
  ret i32 %.0
}